; Function Attrs: mustprogress uwtable
define hidden void @_ZN5zxing6qrcode7DecoderC2Ev(ptr noundef nonnull align 8 dereferenceable(20) %0) unnamed_addr #2 align 2 personality ptr @__gxx_personality_v0 {
  %2 = alloca %"class.zxing::Ref", align 8
  %3 = tail call noalias noundef nonnull dereferenceable(96) ptr @_Znwm(i64 noundef 96) #14
  invoke void @_ZN5zxing9GenericGFC1EiiiRNS_12ErrorHandlerE(ptr noundef nonnull align 8 dereferenceable(92) %3, i32 noundef 285, i32 noundef 256, i32 noundef 0, ptr noundef nonnull align 8 dereferenceable(48) @_ZN5zxingL15gf_err_handler_E)
          to label %4 unwind label %22

4:                                                ; preds = %1
  %5 = getelementptr inbounds nuw i8, ptr %0, i64 8
  %6 = getelementptr inbounds nuw i8, ptr %3, i64 8
  %7 = load i32, ptr %6, align 8, !tbaa !3
  %8 = add i32 %7, 1
  store i32 %8, ptr %6, align 8, !tbaa !3
  store ptr %3, ptr %2, align 8, !tbaa !8
  invoke void @_ZN5zxing18ReedSolomonDecoderC1ENS_3RefINS_9GenericGFEEE(ptr noundef nonnull align 8 dereferenceable(8) %5, ptr noundef nonnull %2)
          to label %9 unwind label %24

9:                                                ; preds = %4
  %10 = load ptr, ptr %2, align 8, !tbaa !8
  %.not.i = icmp eq ptr %10, null
  br i1 %.not.i, label %_ZN5zxing3RefINS_9GenericGFEED2Ev.exit, label %11

11:                                               ; preds = %9
  %12 = getelementptr inbounds nuw i8, ptr %10, i64 8
  %13 = load i32, ptr %12, align 8, !tbaa !3
  %14 = add i32 %13, -1
  store i32 %14, ptr %12, align 8, !tbaa !3
  %15 = icmp eq i32 %14, 0
  br i1 %15, label %16, label %_ZN5zxing3RefINS_9GenericGFEED2Ev.exit

16:                                               ; preds = %11
  store i32 -559026175, ptr %12, align 8, !tbaa !3
  %17 = load ptr, ptr %10, align 8, !tbaa !12
  %18 = getelementptr inbounds nuw i8, ptr %17, i64 8
  %19 = load ptr, ptr %18, align 8
  call void %19(ptr noundef nonnull align 8 dereferenceable(12) %10) #15
  br label %_ZN5zxing3RefINS_9GenericGFEED2Ev.exit

_ZN5zxing3RefINS_9GenericGFEED2Ev.exit:           ; preds = %9, %11, %16
  %20 = getelementptr inbounds nuw i8, ptr %0, i64 16
  store i32 0, ptr %20, align 8, !tbaa !14
  %21 = getelementptr inbounds nuw i8, ptr %0, i64 4
  store float 0.000000e+00, ptr %21, align 4, !tbaa !19
  store i32 19, ptr %0, align 8, !tbaa !20
  ret void

22:                                               ; preds = %1
  %23 = landingpad { ptr, i32 }
          cleanup
  tail call void @_ZdlPv(ptr noundef nonnull %3) #16
  br label %_ZN5zxing3RefINS_9GenericGFEED2Ev.exit5

24:                                               ; preds = %4
  %25 = landingpad { ptr, i32 }
          cleanup
  %26 = load ptr, ptr %2, align 8, !tbaa !8
  %.not.i4 = icmp eq ptr %26, null
  br i1 %.not.i4, label %_ZN5zxing3RefINS_9GenericGFEED2Ev.exit5, label %27

27:                                               ; preds = %24
  %28 = getelementptr inbounds nuw i8, ptr %26, i64 8
  %29 = load i32, ptr %28, align 8, !tbaa !3
  %30 = add i32 %29, -1
  store i32 %30, ptr %28, align 8, !tbaa !3
  %31 = icmp eq i32 %30, 0
  br i1 %31, label %32, label %_ZN5zxing3RefINS_9GenericGFEED2Ev.exit5

32:                                               ; preds = %27
  store i32 -559026175, ptr %28, align 8, !tbaa !3
  %33 = load ptr, ptr %26, align 8, !tbaa !12
  %34 = getelementptr inbounds nuw i8, ptr %33, i64 8
  %35 = load ptr, ptr %34, align 8
  call void %35(ptr noundef nonnull align 8 dereferenceable(12) %26) #15
  br label %_ZN5zxing3RefINS_9GenericGFEED2Ev.exit5

_ZN5zxing3RefINS_9GenericGFEED2Ev.exit5:          ; preds = %32, %27, %24, %22
  %.pn = phi { ptr, i32 } [ %23, %22 ], [ %25, %24 ], [ %25, %27 ], [ %25, %32 ]
  resume { ptr, i32 } %.pn
}